(dp0
S'METTS MARK'
p1
(dp2
S'to_messages'
p3
I807
sS'deferral_payments'
p4
S'NaN'
p5
sS'expenses'
p6
I94299
sS'poi'
p7
I00
sS'deferred_income'
p8
g5
sS'email_address'
p9
S'mark.metts@enron.com'
p10
sS'long_term_incentive'
p11
g5
sS'fraction_from_poi'
p12
F0.04708798017348203
sS'has_tsv'
p13
I1
sS'restricted_stock_deferred'
p14
g5
sS'shared_receipt_with_poi'
p15
I702
sS'num_millions'
p16
I1
sS'loan_advances'
p17
g5
sS'from_messages'
p18
I29
sS'other'
p19
I1740
sS'director_fees'
p20
g5
sS'has_other'
p21
I1
sS'bonus'
p22
I600000
sS'total_stock_value'
p23
I585062
sS'from_poi_to_this_person'
p24
I38
sS'has_tpayment'
p25
I1
sS'has_expenses'
p26
I1
sS'from_this_person_to_poi'
p27
I1
sS'restricted_stock'
p28
I585062
sS'salary'
p29
I365788
sS'total_payments'
p30
I1061827
sS'fraction_to_poi'
p31
F0.034482758620689655
sS'exercised_stock_options'
p32
g5
sS'total_beso'
p33
F600000.0
ssS'BAXTER JOHN C'
p34
(dp35
g3
g5
sg4
I1295738
sg6
I11200
sg7
I00
sg8
I-1386055
sg9
g5
sg11
I1586055
sg12
F0.0
sg13
I1
sg14
g5
sg15
g5
sg16
I16
sg17
g5
sg18
g5
sg19
I2660303
sg20
g5
sg21
I1
sg22
I1200000
sg23
I10623258
sg24
g5
sg25
I1
sg26
I1
sg27
g5
sg28
I3942714
sg29
I267102
sg30
I5634343
sg31
F0.0
sg32
I6680544
sg33
I7880544
ssS'ELLIOTT STEVEN'
p36
(dp37
g3
g5
sg4
g5
sg6
I78552
sg7
I00
sg8
I-400729
sg9
S'steven.elliott@enron.com'
p38
sg11
g5
sg12
F0.0
sg13
I1
sg14
g5
sg15
g5
sg16
I6
sg17
g5
sg18
g5
sg19
I12961
sg20
g5
sg21
I1
sg22
I350000
sg23
I6678735
sg24
g5
sg25
I1
sg26
I1
sg27
g5
sg28
I1788391
sg29
I170941
sg30
I211725
sg31
F0.0
sg32
I4890344
sg33
I5240344
ssS'CORDES WILLIAM R'
p39
(dp40
g3
I764
sg4
g5
sg6
g5
sg7
I00
sg8
g5
sg9
S'bill.cordes@enron.com'
p41
sg11
g5
sg12
F0.013089005235602094
sg13
I1
sg14
g5
sg15
I58
sg16
F1.038185
sg17
g5
sg18
I12
sg19
g5
sg20
g5
sg21
I0
sg22
g5
sg23
I1038185
sg24
I10
sg25
I0
sg26
I0
sg27
I0
sg28
I386335
sg29
g5
sg30
g5
sg31
F0.0
sg32
I651850
sg33
F651850.0
ssS'HANNON KEVIN P'
p42
(dp43
g3
I1045
sg4
g5
sg6
I34039
sg7
I01
sg8
I-3117011
sg9
S'kevin.hannon@enron.com'
p44
sg11
I1617011
sg12
F0.03062200956937799
sg13
I1
sg14
g5
sg15
I1035
sg16
I6
sg17
g5
sg18
I32
sg19
I11350
sg20
g5
sg21
I1
sg22
I1500000
sg23
I6391065
sg24
I32
sg25
I1
sg26
I1
sg27
I21
sg28
I853064
sg29
I243293
sg30
I288682
sg31
F0.65625
sg32
I5538001
sg33
I7038001
ssS'MORDAUNT KRISTINA M'
p45
(dp46
g3
g5
sg4
g5
sg6
I35018
sg7
I00
sg8
g5
sg9
S'kristina.mordaunt@enron.com'
p47
sg11
g5
sg12
F0.0
sg13
I1
sg14
g5
sg15
g5
sg16
I0
sg17
g5
sg18
g5
sg19
I1411
sg20
g5
sg21
I1
sg22
I325000
sg23
I208510
sg24
g5
sg25
I1
sg26
I1
sg27
g5
sg28
I208510
sg29
I267093
sg30
I628522
sg31
F0.0
sg32
g5
sg33
F325000.0
ssS'MEYER ROCKFORD G'
p48
(dp49
g3
I232
sg4
I1848227
sg6
g5
sg7
I00
sg8
g5
sg9
S'rockford.meyer@enron.com'
p50
sg11
g5
sg12
F0.0
sg13
I1
sg14
g5
sg15
I22
sg16
I2
sg17
g5
sg18
I28
sg19
g5
sg20
g5
sg21
I0
sg22
g5
sg23
I955873
sg24
I0
sg25
I1
sg26
I0
sg27
I0
sg28
I462384
sg29
g5
sg30
I1848227
sg31
F0.0
sg32
I493489
sg33
F493489.0
ssS'MCMAHON JEFFREY'
p51
(dp52
g3
I2355
sg4
g5
sg6
I137108
sg7
I00
sg8
g5
sg9
S'jeffrey.mcmahon@enron.com'
p53
sg11
I694862
sg12
F0.024628450106157114
sg13
I1
sg14
g5
sg15
I2228
sg16
I5
sg17
g5
sg18
I48
sg19
I297353
sg20
g5
sg21
I1
sg22
I2600000
sg23
I1662855
sg24
I58
sg25
I1
sg26
I1
sg27
I26
sg28
I558801
sg29
I370448
sg30
I4099771
sg31
F0.5416666666666666
sg32
I1104054
sg33
I3704054
ssS'HORTON STANLEY C'
p54
(dp55
g3
I2350
sg4
I3131860
sg6
g5
sg7
I00
sg8
g5
sg9
S'stanley.horton@enron.com'
p56
sg11
g5
sg12
F0.01872340425531915
sg13
I1
sg14
g5
sg15
I1074
sg16
I10
sg17
g5
sg18
I1073
sg19
g5
sg20
g5
sg21
I0
sg22
g5
sg23
I7256648
sg24
I44
sg25
I1
sg26
I0
sg27
I15
sg28
I2046079
sg29
g5
sg30
I3131860
sg31
F0.013979496738117428
sg32
I5210569
sg33
F5210569.0
ssS'PIPER GREGORY F'
p57
(dp58
g3
I1238
sg4
I1130036
sg6
I43057
sg7
I00
sg8
I-33333
sg9
S'greg.piper@enron.com'
p59
sg11
g5
sg12
F0.049273021001615507
sg13
I1
sg14
I-409554
sg15
I742
sg16
I2
sg17
g5
sg18
I222
sg19
I778
sg20
g5
sg21
I1
sg22
I400000
sg23
I880290
sg24
I61
sg25
I1
sg26
I1
sg27
I48
sg28
I409554
sg29
I197091
sg30
I1737629
sg31
F0.21621621621621623
sg32
I880290
sg33
I1280290
ssS'HUMPHREY GENE E'
p60
(dp61
g3
I128
sg4
I2964506
sg6
I4994
sg7
I00
sg8
g5
sg9
S'gene.humphrey@enron.com'
p62
sg11
g5
sg12
F0.078125
sg13
I1
sg14
g5
sg15
I119
sg16
I5
sg17
g5
sg18
I17
sg19
g5
sg20
g5
sg21
I0
sg22
g5
sg23
I2282768
sg24
I10
sg25
I1
sg26
I1
sg27
I17
sg28
g5
sg29
I130724
sg30
I3100224
sg31
F1.0
sg32
I2282768
sg33
F2282768.0
ssS'UMANOFF ADAM S'
p63
(dp64
g3
I111
sg4
g5
sg6
I53122
sg7
I00
sg8
g5
sg9
S'adam.umanoff@enron.com'
p65
sg11
g5
sg12
F0.10810810810810811
sg13
I0
sg14
g5
sg15
I41
sg16
F1.130461
sg17
g5
sg18
I18
sg19
g5
sg20
g5
sg21
I0
sg22
I788750
sg23
g5
sg24
I12
sg25
I1
sg26
I1
sg27
I0
sg28
g5
sg29
I288589
sg30
I1130461
sg31
F0.0
sg32
g5
sg33
F788750.0
ssS'BLACHMAN JEREMY M'
p66
(dp67
g3
I2475
sg4
g5
sg6
I84208
sg7
I00
sg8
g5
sg9
S'jeremy.blachman@enron.com'
p68
sg11
I831809
sg12
F0.010101010101010102
sg13
I1
sg14
g5
sg15
I2326
sg16
I2
sg17
g5
sg18
I14
sg19
I272
sg20
g5
sg21
I1
sg22
I850000
sg23
I954354
sg24
I25
sg25
I1
sg26
I1
sg27
I2
sg28
I189041
sg29
I248546
sg30
I2014835
sg31
F0.14285714285714285
sg32
I765313
sg33
I1615313
ssS'SUNDE MARTIN'
p69
(dp70
g3
I2647
sg4
g5
sg6
g5
sg7
I00
sg8
g5
sg9
S'marty.sunde@enron.com'
p71
sg11
I476451
sg12
F0.013978088401964487
sg13
I1
sg14
g5
sg15
I2565
sg16
I2
sg17
g5
sg18
I38
sg19
I111122
sg20
g5
sg21
I1
sg22
I700000
sg23
I698920
sg24
I37
sg25
I1
sg26
I0
sg27
I13
sg28
I698920
sg29
I257486
sg30
I1545059
sg31
F0.34210526315789475
sg32
g5
sg33
F700000.0
ssS'GIBBS DANA R'
p72
(dp73
g3
I169
sg4
I504610
sg6
g5
sg7
I00
sg8
g5
sg9
S'dana.gibbs@enron.com'
p74
sg11
I461912
sg12
F0.0
sg13
I1
sg14
g5
sg15
I23
sg16
I3
sg17
g5
sg18
I12
sg19
g5
sg20
g5
sg21
I0
sg22
g5
sg23
I2218275
sg24
I0
sg25
I1
sg26
I0
sg27
I0
sg28
g5
sg29
g5
sg30
I966522
sg31
F0.0
sg32
I2218275
sg33
F2218275.0
ssS'LOWRY CHARLES P'
p75
(dp76
g3
g5
sg4
g5
sg6
g5
sg7
I00
sg8
g5
sg9
g5
sg11
g5
sg12
F0.0
sg13
I1
sg14
I-153686
sg15
g5
sg16
F0.372205
sg17
g5
sg18
g5
sg19
g5
sg20
g5
sg21
I0
sg22
g5
sg23
I372205
sg24
g5
sg25
I0
sg26
I0
sg27
g5
sg28
I153686
sg29
g5
sg30
g5
sg31
F0.0
sg32
I372205
sg33
F372205.0
ssS'COLWELL WESLEY'
p77
(dp78
g3
I1758
sg4
I27610
sg6
I16514
sg7
I01
sg8
I-144062
sg9
S'wes.colwell@enron.com'
p79
sg11
g5
sg12
F0.13651877133105803
sg13
I1
sg14
g5
sg15
I1132
sg16
I2
sg17
g5
sg18
I40
sg19
I101740
sg20
g5
sg21
I1
sg22
I1200000
sg23
I698242
sg24
I240
sg25
I1
sg26
I1
sg27
I11
sg28
I698242
sg29
I288542
sg30
I1490344
sg31
F0.275
sg32
g5
sg33
F1200000.0
ssS'MULLER MARK S'
p80
(dp81
g3
I136
sg4
I842924
sg6
g5
sg7
I00
sg8
I-719000
sg9
S's..muller@enron.com'
p82
sg11
I1725545
sg12
F0.08823529411764706
sg13
I1
sg14
g5
sg15
I114
sg16
I4
sg17
g5
sg18
I16
sg19
I947
sg20
g5
sg21
I1
sg22
I1100000
sg23
I1416848
sg24
I12
sg25
I1
sg26
I0
sg27
I0
sg28
I360528
sg29
I251654
sg30
I3202070
sg31
F0.0
sg32
I1056320
sg33
I2156320
ssS'JACKSON CHARLENE R'
p83
(dp84
g3
I258
sg4
g5
sg6
I10181
sg7
I00
sg8
g5
sg9
S'charlene.jackson@enron.com'
p85
sg11
g5
sg12
F0.09689922480620156
sg13
I1
sg14
g5
sg15
I117
sg16
I1
sg17
g5
sg18
I56
sg19
I2435
sg20
g5
sg21
I1
sg22
I250000
sg23
I725735
sg24
I25
sg25
I1
sg26
I1
sg27
I19
sg28
I540672
sg29
I288558
sg30
I551174
sg31
F0.3392857142857143
sg32
I185063
sg33
I435063
ssS'WESTFAHL RICHARD K'
p86
(dp87
g3
g5
sg4
g5
sg6
I51870
sg7
I00
sg8
I-10800
sg9
S'dick.westfahl@enron.com'
p88
sg11
I256191
sg12
F0.0
sg13
I1
sg14
g5
sg15
g5
sg16
I1
sg17
g5
sg18
g5
sg19
I401130
sg20
g5
sg21
I1
sg22
g5
sg23
I384930
sg24
g5
sg25
I1
sg26
I1
sg27
g5
sg28
I384930
sg29
I63744
sg30
I762135
sg31
F0.0
sg32
g5
sg33
F0.0
ssS'WALTERS GARETH W'
p89
(dp90
g3
g5
sg4
I53625
sg6
I33785
sg7
I00
sg8
g5
sg9
g5
sg11
g5
sg12
F0.0
sg13
I1
sg14
g5
sg15
g5
sg16
I1
sg17
g5
sg18
g5
sg19
g5
sg20
g5
sg21
I0
sg22
g5
sg23
I1030329
sg24
g5
sg25
I1
sg26
I1
sg27
g5
sg28
g5
sg29
g5
sg30
I87410
sg31
F0.0
sg32
I1030329
sg33
F1030329.0
ssS'WALLS JR ROBERT H'
p91
(dp92
g3
I671
sg4
g5
sg6
I50936
sg7
I00
sg8
g5
sg9
S'rob.walls@enron.com'
p93
sg11
I540751
sg12
F0.02533532041728763
sg13
I1
sg14
g5
sg15
I215
sg16
I7
sg17
g5
sg18
I146
sg19
I2
sg20
g5
sg21
I1
sg22
I850000
sg23
I5898997
sg24
I17
sg25
I1
sg26
I1
sg27
I0
sg28
I1552453
sg29
I357091
sg30
I1798780
sg31
F0.0
sg32
I4346544
sg33
I5196544
ssS'KITCHEN LOUISE'
p94
(dp95
g3
I8305
sg4
g5
sg6
I5774
sg7
I00
sg8
g5
sg9
S'louise.kitchen@enron.com'
p96
sg11
g5
sg12
F0.030222757375075255
sg13
I1
sg14
g5
sg15
I3669
sg16
I4
sg17
g5
sg18
I1728
sg19
I93925
sg20
g5
sg21
I1
sg22
I3100000
sg23
I547143
sg24
I251
sg25
I1
sg26
I1
sg27
I194
sg28
I466101
sg29
I271442
sg30
I3471141
sg31
F0.11226851851851852
sg32
I81042
sg33
I3181042
ssS'CHAN RONNIE'
p97
(dp98
g3
g5
sg4
g5
sg6
g5
sg7
I00
sg8
I-98784
sg9
g5
sg11
g5
sg12
F0.0
sg13
I0
sg14
I-32460
sg15
g5
sg16
F0.0
sg17
g5
sg18
g5
sg19
g5
sg20
I98784
sg21
I0
sg22
g5
sg23
g5
sg24
g5
sg25
I0
sg26
I0
sg27
g5
sg28
I32460
sg29
g5
sg30
g5
sg31
F0.0
sg32
g5
sg33
F0.0
ssS'BELFER ROBERT'
p99
(dp100
g3
g5
sg4
I-102500
sg6
g5
sg7
I00
sg8
g5
sg9
g5
sg11
g5
sg12
F0.0
sg13
I1
sg14
I44093
sg15
g5
sg16
I0
sg17
g5
sg18
g5
sg19
g5
sg20
I3285
sg21
I0
sg22
g5
sg23
I-44093
sg24
g5
sg25
I1
sg26
I0
sg27
g5
sg28
g5
sg29
g5
sg30
I102500
sg31
F0.0
sg32
I3285
sg33
F3285.0
ssS'SHANKMAN JEFFREY A'
p101
(dp102
g3
I3221
sg4
g5
sg6
I178979
sg7
I00
sg8
g5
sg9
S'jeffrey.shankman@enron.com'
p103
sg11
I554422
sg12
F0.029183483390251473
sg13
I1
sg14
g5
sg15
I1730
sg16
I5
sg17
g5
sg18
I2681
sg19
I1191
sg20
g5
sg21
I1
sg22
I2000000
sg23
I2072035
sg24
I94
sg25
I1
sg26
I1
sg27
I83
sg28
I630137
sg29
I304110
sg30
I3038702
sg31
F0.030958597538232
sg32
I1441898
sg33
I3441898
ssS'WODRASKA JOHN'
p104
(dp105
g3
g5
sg4
g5
sg6
g5
sg7
I00
sg8
g5
sg9
S'john.wodraska@enron.com'
p106
sg11
g5
sg12
F0.0
sg13
I0
sg14
g5
sg15
g5
sg16
F0.189583
sg17
g5
sg18
g5
sg19
I189583
sg20
g5
sg21
I1
sg22
g5
sg23
g5
sg24
g5
sg25
I1
sg26
I0
sg27
g5
sg28
g5
sg29
g5
sg30
I189583
sg31
F0.0
sg32
g5
sg33
F0.0
ssS'BERGSIEKER RICHARD P'
p107
(dp108
g3
I383
sg4
g5
sg6
I59175
sg7
I00
sg8
I-485813
sg9
S'rick.bergsieker@enron.com'
p109
sg11
I180250
sg12
F0.010443864229765013
sg13
I1
sg14
g5
sg15
I233
sg16
I1
sg17
g5
sg18
I59
sg19
I427316
sg20
g5
sg21
I1
sg22
I250000
sg23
I659249
sg24
I4
sg25
I1
sg26
I1
sg27
I0
sg28
I659249
sg29
I187922
sg30
I618850
sg31
F0.0
sg32
g5
sg33
F250000.0
ssS'URQUHART JOHN A'
p110
(dp111
g3
g5
sg4
g5
sg6
I228656
sg7
I00
sg8
I-36666
sg9
g5
sg11
g5
sg12
F0.0
sg13
I0
sg14
g5
sg15
g5
sg16
F0.228656
sg17
g5
sg18
g5
sg19
g5
sg20
I36666
sg21
I0
sg22
g5
sg23
g5
sg24
g5
sg25
I1
sg26
I1
sg27
g5
sg28
g5
sg29
g5
sg30
I228656
sg31
F0.0
sg32
g5
sg33
F0.0
ssS'BIBI PHILIPPE A'
p112
(dp113
g3
I1607
sg4
g5
sg6
I38559
sg7
I00
sg8
g5
sg9
S'philippe.bibi@enron.com'
p114
sg11
I369721
sg12
F0.01431238332296204
sg13
I1
sg14
g5
sg15
I1336
sg16
I3
sg17
g5
sg18
I40
sg19
I425688
sg20
g5
sg21
I1
sg22
I1000000
sg23
I1843816
sg24
I23
sg25
I1
sg26
I1
sg27
I8
sg28
I378082
sg29
I213625
sg30
I2047593
sg31
F0.2
sg32
I1465734
sg33
I2465734
ssS'RIEKER PAULA H'
p115
(dp116
g3
I1328
sg4
I214678
sg6
I33271
sg7
I01
sg8
I-100000
sg9
S'paula.rieker@enron.com'
p117
sg11
g5
sg12
F0.02635542168674699
sg13
I1
sg14
g5
sg15
I1258
sg16
I3
sg17
g5
sg18
I82
sg19
I1950
sg20
g5
sg21
I1
sg22
I700000
sg23
I1918887
sg24
I35
sg25
I1
sg26
I1
sg27
I48
sg28
I283649
sg29
I249201
sg30
I1099100
sg31
F0.5853658536585366
sg32
I1635238
sg33
I2335238
ssS'WHALEY DAVID A'
p118
(dp119
g3
g5
sg4
g5
sg6
g5
sg7
I00
sg8
g5
sg9
g5
sg11
g5
sg12
F0.0
sg13
I1
sg14
g5
sg15
g5
sg16
F0.098718
sg17
g5
sg18
g5
sg19
g5
sg20
g5
sg21
I0
sg22
g5
sg23
I98718
sg24
g5
sg25
I0
sg26
I0
sg27
g5
sg28
g5
sg29
g5
sg30
g5
sg31
F0.0
sg32
I98718
sg33
F98718.0
ssS'BECK SALLY W'
p120
(dp121
g3
I7315
sg4
g5
sg6
I37172
sg7
I00
sg8
g5
sg9
S'sally.beck@enron.com'
p122
sg11
g5
sg12
F0.01968557758031442
sg13
I1
sg14
g5
sg15
I2639
sg16
I1
sg17
g5
sg18
I4343
sg19
I566
sg20
g5
sg21
I1
sg22
I700000
sg23
I126027
sg24
I144
sg25
I1
sg26
I1
sg27
I386
sg28
I126027
sg29
I231330
sg30
I969068
sg31
F0.08887865530739121
sg32
g5
sg33
F700000.0
ssS'HAUG DAVID L'
p123
(dp124
g3
I573
sg4
g5
sg6
I475
sg7
I00
sg8
g5
sg9
S'david.haug@enron.com'
p125
sg11
g5
sg12
F0.006980802792321117
sg13
I1
sg14
g5
sg15
I471
sg16
I2
sg17
g5
sg18
I19
sg19
g5
sg20
g5
sg21
I0
sg22
g5
sg23
I2217299
sg24
I4
sg25
I1
sg26
I1
sg27
I7
sg28
I2217299
sg29
g5
sg30
I475
sg31
F0.3684210526315789
sg32
g5
sg33
F0.0
ssS'ECHOLS JOHN B'
p126
(dp127
g3
g5
sg4
g5
sg6
I21530
sg7
I00
sg8
g5
sg9
S'john.echols@enron.com'
p128
sg11
I2234774
sg12
F0.0
sg13
I1
sg14
g5
sg15
g5
sg16
I3
sg17
g5
sg18
g5
sg19
I53775
sg20
g5
sg21
I1
sg22
I200000
sg23
I1008941
sg24
g5
sg25
I1
sg26
I1
sg27
g5
sg28
I407503
sg29
I182245
sg30
I2692324
sg31
F0.0
sg32
I601438
sg33
I801438
ssS'MENDELSOHN JOHN'
p129
(dp130
g3
g5
sg4
g5
sg6
I148
sg7
I00
sg8
I-103750
sg9
g5
sg11
g5
sg12
F0.0
sg13
I0
sg14
g5
sg15
g5
sg16
F0.000148
sg17
g5
sg18
g5
sg19
g5
sg20
I103750
sg21
I0
sg22
g5
sg23
g5
sg24
g5
sg25
I1
sg26
I1
sg27
g5
sg28
g5
sg29
g5
sg30
I148
sg31
F0.0
sg32
g5
sg33
F0.0
ssS'HICKERSON GARY J'
p131
(dp132
g3
I1320
sg4
g5
sg6
I98849
sg7
I00
sg8
g5
sg9
S'gary.hickerson@enron.com'
p133
sg11
I69223
sg12
F0.030303030303030304
sg13
I1
sg14
g5
sg15
I900
sg16
I2
sg17
g5
sg18
I27
sg19
I1936
sg20
g5
sg21
I1
sg22
I1700000
sg23
I441096
sg24
I40
sg25
I1
sg26
I1
sg27
I1
sg28
I441096
sg29
I211788
sg30
I2081796
sg31
F0.037037037037037035
sg32
g5
sg33
F1700000.0
ssS'CLINE KENNETH W'
p134
(dp135
g3
g5
sg4
g5
sg6
g5
sg7
I00
sg8
g5
sg9
g5
sg11
g5
sg12
F0.0
sg13
I1
sg14
I-472568
sg15
g5
sg16
F0.189518
sg17
g5
sg18
g5
sg19
g5
sg20
g5
sg21
I0
sg22
g5
sg23
I189518
sg24
g5
sg25
I0
sg26
I0
sg27
g5
sg28
I662086
sg29
g5
sg30
g5
sg31
F0.0
sg32
g5
sg33
F0.0
ssS'LEWIS RICHARD'
p136
(dp137
g3
I952
sg4
g5
sg6
g5
sg7
I00
sg8
g5
sg9
S'richard.lewis@enron.com'
p138
sg11
g5
sg12
F0.01050420168067227
sg13
I1
sg14
g5
sg15
I739
sg16
F0.850477
sg17
g5
sg18
I26
sg19
g5
sg20
g5
sg21
I0
sg22
g5
sg23
I850477
sg24
I10
sg25
I0
sg26
I0
sg27
I0
sg28
g5
sg29
g5
sg30
g5
sg31
F0.0
sg32
I850477
sg33
F850477.0
ssS'HAYES ROBERT E'
p139
(dp140
g3
I504
sg4
I7961
sg6
g5
sg7
I00
sg8
g5
sg9
S'robert.hayes@enron.com'
p141
sg11
g5
sg12
F0.031746031746031744
sg13
I1
sg14
g5
sg15
I50
sg16
I0
sg17
g5
sg18
I12
sg19
g5
sg20
g5
sg21
I0
sg22
g5
sg23
I151418
sg24
I16
sg25
I1
sg26
I0
sg27
I0
sg28
I151418
sg29
g5
sg30
I7961
sg31
F0.0
sg32
g5
sg33
F0.0
ssS'MCCARTY DANNY J'
p142
(dp143
g3
I1433
sg4
g5
sg6
g5
sg7
I00
sg8
g5
sg9
S'danny.mccarty@enron.com'
p144
sg11
g5
sg12
F0.017445917655268667
sg13
I1
sg14
g5
sg15
I508
sg16
F0.758931
sg17
g5
sg18
I215
sg19
g5
sg20
g5
sg21
I0
sg22
g5
sg23
I758931
sg24
I25
sg25
I0
sg26
I0
sg27
I2
sg28
I94556
sg29
g5
sg30
g5
sg31
F0.009302325581395349
sg32
I664375
sg33
F664375.0
ssS'KOPPER MICHAEL J'
p145
(dp146
g3
g5
sg4
g5
sg6
I118134
sg7
I01
sg8
g5
sg9
S'michael.kopper@enron.com'
p147
sg11
I602671
sg12
F0.0
sg13
I1
sg14
g5
sg15
g5
sg16
I3
sg17
g5
sg18
g5
sg19
I907502
sg20
g5
sg21
I1
sg22
I800000
sg23
I985032
sg24
g5
sg25
I1
sg26
I1
sg27
g5
sg28
I985032
sg29
I224305
sg30
I2652612
sg31
F0.0
sg32
g5
sg33
F800000.0
ssS'LEFF DANIEL P'
p148
(dp149
g3
I2822
sg4
g5
sg6
g5
sg7
I00
sg8
g5
sg9
S'dan.leff@enron.com'
p150
sg11
I1387399
sg12
F0.02374202693125443
sg13
I1
sg14
g5
sg15
I2672
sg16
I3
sg17
g5
sg18
I63
sg19
I3083
sg20
g5
sg21
I1
sg22
I1000000
sg23
I360528
sg24
I67
sg25
I1
sg26
I0
sg27
I14
sg28
I360528
sg29
I273746
sg30
I2664228
sg31
F0.2222222222222222
sg32
g5
sg33
F1000000.0
ssS'LAVORATO JOHN J'
p151
(dp152
g3
I7259
sg4
g5
sg6
I49537
sg7
I00
sg8
g5
sg9
S'john.lavorato@enron.com'
p153
sg11
I2035380
sg12
F0.07273729163796666
sg13
I1
sg14
g5
sg15
I3962
sg16
I15
sg17
g5
sg18
I2585
sg19
I1552
sg20
g5
sg21
I1
sg22
I8000000
sg23
I5167144
sg24
I528
sg25
I1
sg26
I1
sg27
I411
sg28
I1008149
sg29
I339288
sg30
I10425757
sg31
F0.15899419729206962
sg32
I4158995
sg33
I12158995
ssS'BERBERIAN DAVID'
p154
(dp155
g3
g5
sg4
g5
sg6
I11892
sg7
I00
sg8
g5
sg9
S'david.berberian@enron.com'
p156
sg11
g5
sg12
F0.0
sg13
I1
sg14
g5
sg15
g5
sg16
I2
sg17
g5
sg18
g5
sg19
g5
sg20
g5
sg21
I0
sg22
g5
sg23
I2493616
sg24
g5
sg25
I1
sg26
I1
sg27
g5
sg28
I869220
sg29
I216582
sg30
I228474
sg31
F0.0
sg32
I1624396
sg33
F1624396.0
ssS'DETMERING TIMOTHY J'
p157
(dp158
g3
g5
sg4
I875307
sg6
I52255
sg7
I00
sg8
I-775241
sg9
S'timothy.detmering@enron.com'
p159
sg11
I415657
sg12
F0.0
sg13
I1
sg14
I-315068
sg15
g5
sg16
I3
sg17
g5
sg18
g5
sg19
I1105
sg20
g5
sg21
I1
sg22
I425000
sg23
I2027865
sg24
g5
sg25
I1
sg26
I1
sg27
g5
sg28
I315068
sg29
I210500
sg30
I1204583
sg31
F0.0
sg32
I2027865
sg33
I2452865
ssS'WAKEHAM JOHN'
p160
(dp161
g3
g5
sg4
g5
sg6
I103773
sg7
I00
sg8
g5
sg9
g5
sg11
g5
sg12
F0.0
sg13
I0
sg14
g5
sg15
g5
sg16
F0.213071
sg17
g5
sg18
g5
sg19
g5
sg20
I109298
sg21
I0
sg22
g5
sg23
g5
sg24
g5
sg25
I1
sg26
I1
sg27
g5
sg28
g5
sg29
g5
sg30
I213071
sg31
F0.0
sg32
g5
sg33
F0.0
ssS'POWERS WILLIAM'
p162
(dp163
g3
I653
sg4
g5
sg6
g5
sg7
I00
sg8
I-17500
sg9
S'ken.powers@enron.com'
p164
sg11
g5
sg12
F0.0
sg13
I0
sg14
g5
sg15
I12
sg16
F0.0
sg17
g5
sg18
I26
sg19
g5
sg20
I17500
sg21
I0
sg22
g5
sg23
g5
sg24
I0
sg25
I0
sg26
I0
sg27
I0
sg28
g5
sg29
g5
sg30
g5
sg31
F0.0
sg32
g5
sg33
F0.0
ssS'GOLD JOSEPH'
p165
(dp166
g3
g5
sg4
g5
sg6
g5
sg7
I00
sg8
g5
sg9
S'joe.gold@enron.com'
p167
sg11
I304805
sg12
F0.0
sg13
I1
sg14
g5
sg15
g5
sg16
I3
sg17
g5
sg18
g5
sg19
I819288
sg20
g5
sg21
I1
sg22
I750000
sg23
I877611
sg24
g5
sg25
I1
sg26
I0
sg27
g5
sg28
I441096
sg29
I272880
sg30
I2146973
sg31
F0.0
sg32
I436515
sg33
I1186515
ssS'BANNANTINE JAMES M'
p168
(dp169
g3
I566
sg4
g5
sg6
I56301
sg7
I00
sg8
I-5104
sg9
S'james.bannantine@enron.com'
p170
sg11
g5
sg12
F0.06890459363957598
sg13
I1
sg14
I-560222
sg15
I465
sg16
I6
sg17
g5
sg18
I29
sg19
I864523
sg20
g5
sg21
I1
sg22
g5
sg23
I5243487
sg24
I39
sg25
I1
sg26
I1
sg27
I0
sg28
I1757552
sg29
I477
sg30
I916197
sg31
F0.0
sg32
I4046157
sg33
F4046157.0
ssS'DUNCAN JOHN H'
p171
(dp172
g3
g5
sg4
g5
sg6
g5
sg7
I00
sg8
I-25000
sg9
g5
sg11
g5
sg12
F0.0
sg13
I1
sg14
g5
sg15
g5
sg16
I0
sg17
g5
sg18
g5
sg19
g5
sg20
I102492
sg21
I0
sg22
g5
sg23
I371750
sg24
g5
sg25
I1
sg26
I0
sg27
g5
sg28
g5
sg29
g5
sg30
I77492
sg31
F0.0
sg32
I371750
sg33
F371750.0
ssS'SHAPIRO RICHARD S'
p173
(dp174
g3
I15149
sg4
g5
sg6
I137767
sg7
I00
sg8
g5
sg9
S'richard.shapiro@enron.com'
p175
sg11
g5
sg12
F0.0048848108786058485
sg13
I1
sg14
g5
sg15
I4527
sg16
I2
sg17
g5
sg18
I1215
sg19
I705
sg20
g5
sg21
I1
sg22
I650000
sg23
I987001
sg24
I74
sg25
I1
sg26
I1
sg27
I65
sg28
I379164
sg29
I269076
sg30
I1057548
sg31
F0.053497942386831275
sg32
I607837
sg33
I1257837
ssS'SHERRIFF JOHN R'
p176
(dp177
g3
I3187
sg4
g5
sg6
g5
sg7
I00
sg8
g5
sg9
S'john.sherriff@enron.com'
p178
sg11
I554422
sg12
F0.008785691873235017
sg13
I1
sg14
g5
sg15
I2103
sg16
I7
sg17
g5
sg18
I92
sg19
I1852186
sg20
g5
sg21
I1
sg22
I1500000
sg23
I3128982
sg24
I28
sg25
I1
sg26
I0
sg27
I23
sg28
I1293424
sg29
I428780
sg30
I4335388
sg31
F0.25
sg32
I1835558
sg33
I3335558
ssS'SHELBY REX'
p179
(dp180
g3
I225
sg4
g5
sg6
I22884
sg7
I01
sg8
I-4167
sg9
S'rex.shelby@enron.com'
p181
sg11
g5
sg12
F0.057777777777777775
sg13
I1
sg14
g5
sg15
I91
sg16
I4
sg17
g5
sg18
I39
sg19
I1573324
sg20
g5
sg21
I1
sg22
I200000
sg23
I2493616
sg24
I13
sg25
I1
sg26
I1
sg27
I14
sg28
I869220
sg29
I211844
sg30
I2003885
sg31
F0.358974358974359
sg32
I1624396
sg33
I1824396
ssS'LEMAISTRE CHARLES'
p182
(dp183
g3
g5
sg4
g5
sg6
g5
sg7
I00
sg8
I-25000
sg9
g5
sg11
g5
sg12
F0.0
sg13
I1
sg14
g5
sg15
g5
sg16
I0
sg17
g5
sg18
g5
sg19
g5
sg20
I112492
sg21
I0
sg22
g5
sg23
I412878
sg24
g5
sg25
I1
sg26
I0
sg27
g5
sg28
g5
sg29
g5
sg30
I87492
sg31
F0.0
sg32
I412878
sg33
F412878.0
ssS'DEFFNER JOSEPH M'
p184
(dp185
g3
I714
sg4
g5
sg6
I41626
sg7
I00
sg8
g5
sg9
S'joseph.deffner@enron.com'
p186
sg11
I335349
sg12
F0.16106442577030813
sg13
I1
sg14
g5
sg15
I552
sg16
I1
sg17
g5
sg18
I74
sg19
I25553
sg20
g5
sg21
I1
sg22
I600000
sg23
I159211
sg24
I115
sg25
I1
sg26
I1
sg27
I4
sg28
I141833
sg29
I206121
sg30
I1208649
sg31
F0.05405405405405406
sg32
I17378
sg33
I617378
ssS'KISHKILL JOSEPH G'
p187
(dp188
g3
g5
sg4
g5
sg6
I116335
sg7
I00
sg8
I-51042
sg9
S'joe.kishkill@enron.com'
p189
sg11
g5
sg12
F0.0
sg13
I1
sg14
g5
sg15
g5
sg16
I1
sg17
g5
sg18
g5
sg19
I465357
sg20
g5
sg21
I1
sg22
g5
sg23
I1034346
sg24
g5
sg25
I1
sg26
I1
sg27
g5
sg28
I1034346
sg29
I174246
sg30
I704896
sg31
F0.0
sg32
g5
sg33
F0.0
ssS'WHALLEY LAWRENCE G'
p190
(dp191
g3
I6019
sg4
g5
sg6
I57838
sg7
I00
sg8
g5
sg9
S'greg.whalley@enron.com'
p192
sg11
I808346
sg12
F0.03090214321315833
sg13
I1
sg14
g5
sg15
I3920
sg16
I10
sg17
g5
sg18
I556
sg19
I301026
sg20
g5
sg21
I1
sg22
I3000000
sg23
I6079137
sg24
I186
sg25
I1
sg26
I1
sg27
I24
sg28
I2796177
sg29
I510364
sg30
I4677574
sg31
F0.04316546762589928
sg32
I3282960
sg33
I6282960
ssS'MCCONNELL MICHAEL S'
p193
(dp194
g3
I3329
sg4
g5
sg6
I81364
sg7
I00
sg8
g5
sg9
S'mike.mcconnell@enron.com'
p195
sg11
I554422
sg12
F0.02763592670471613
sg13
I1
sg14
g5
sg15
I2189
sg16
I5
sg17
g5
sg18
I2742
sg19
I540
sg20
g5
sg21
I1
sg22
I1100000
sg23
I3101279
sg24
I92
sg25
I1
sg26
I1
sg27
I194
sg28
I1478269
sg29
I365038
sg30
I2101364
sg31
F0.07075127644055434
sg32
I1623010
sg33
I2723010
ssS'PIRO JIM'
p196
(dp197
g3
I58
sg4
g5
sg6
g5
sg7
I00
sg8
g5
sg9
S'jim.piro@enron.com'
p198
sg11
g5
sg12
F0.0
sg13
I1
sg14
g5
sg15
I3
sg16
F0.047304
sg17
g5
sg18
I16
sg19
g5
sg20
g5
sg21
I0
sg22
g5
sg23
I47304
sg24
I0
sg25
I0
sg26
I0
sg27
I1
sg28
I47304
sg29
g5
sg30
g5
sg31
F0.0625
sg32
g5
sg33
F0.0
ssS'DELAINEY DAVID W'
p199
(dp200
g3
I3093
sg4
g5
sg6
I86174
sg7
I01
sg8
g5
sg9
S'david.delainey@enron.com'
p201
sg11
I1294981
sg12
F0.02133850630455868
sg13
I1
sg14
g5
sg15
I2097
sg16
I8
sg17
g5
sg18
I3069
sg19
I1661
sg20
g5
sg21
I1
sg22
I3000000
sg23
I3614261
sg24
I66
sg25
I1
sg26
I1
sg27
I609
sg28
I1323148
sg29
I365163
sg30
I4747979
sg31
F0.198435972629521
sg32
I2291113
sg33
I5291113
ssS'SULLIVAN-SHAKLOVITZ COLLEEN'
p202
(dp203
g3
g5
sg4
I181993
sg6
g5
sg7
I00
sg8
g5
sg9
g5
sg11
I554422
sg12
F0.0
sg13
I1
sg14
g5
sg15
g5
sg16
I2
sg17
g5
sg18
g5
sg19
I162
sg20
g5
sg21
I1
sg22
I100000
sg23
I1362375
sg24
g5
sg25
I1
sg26
I0
sg27
g5
sg28
g5
sg29
I162779
sg30
I999356
sg31
F0.0
sg32
I1362375
sg33
I1462375
ssS'WROBEL BRUCE'
p204
(dp205
g3
g5
sg4
g5
sg6
g5
sg7
I00
sg8
g5
sg9
g5
sg11
g5
sg12
F0.0
sg13
I1
sg14
g5
sg15
g5
sg16
F0.13913
sg17
g5
sg18
g5
sg19
g5
sg20
g5
sg21
I0
sg22
g5
sg23
I139130
sg24
g5
sg25
I0
sg26
I0
sg27
g5
sg28
g5
sg29
g5
sg30
g5
sg31
F0.0
sg32
I139130
sg33
F139130.0
ssS'LINDHOLM TOD A'
p206
(dp207
g3
g5
sg4
I204075
sg6
I57727
sg7
I00
sg8
g5
sg9
S'tod.lindholm@enron.com'
p208
sg11
I175000
sg12
F0.0
sg13
I1
sg14
g5
sg15
g5
sg16
I3
sg17
g5
sg18
g5
sg19
I2630
sg20
g5
sg21
I1
sg22
I200000
sg23
I3064208
sg24
g5
sg25
I1
sg26
I1
sg27
g5
sg28
I514847
sg29
I236457
sg30
I875889
sg31
F0.0
sg32
I2549361
sg33
I2749361
ssS'MEYER JEROME J'
p209
(dp210
g3
g5
sg4
g5
sg6
I2151
sg7
I00
sg8
I-38346
sg9
g5
sg11
g5
sg12
F0.0
sg13
I0
sg14
g5
sg15
g5
sg16
F0.002151
sg17
g5
sg18
g5
sg19
g5
sg20
I38346
sg21
I0
sg22
g5
sg23
g5
sg24
g5
sg25
I1
sg26
I1
sg27
g5
sg28
g5
sg29
g5
sg30
I2151
sg31
F0.0
sg32
g5
sg33
F0.0
ssS'LAY KENNETH L'
p211
(dp212
g3
I4273
sg4
I202911
sg6
I99832
sg7
I01
sg8
I-300000
sg9
S'kenneth.lay@enron.com'
p213
sg11
I3600000
sg12
F0.028785396676807865
sg13
I1
sg14
g5
sg15
I2411
sg16
I152
sg17
I81525000
sg18
I36
sg19
I10359729
sg20
g5
sg21
I1
sg22
I7000000
sg23
I49110078
sg24
I123
sg25
I1
sg26
I1
sg27
I16
sg28
I14761694
sg29
I1072321
sg30
I103559793
sg31
F0.4444444444444444
sg32
I34348384
sg33
I41348384
ssS'BUTTS ROBERT H'
p214
(dp215
g3
g5
sg4
g5
sg6
I9410
sg7
I00
sg8
I-75000
sg9
S'bob.butts@enron.com'
p216
sg11
I175000
sg12
F0.0
sg13
I1
sg14
g5
sg15
g5
sg16
I1
sg17
g5
sg18
g5
sg19
I150656
sg20
g5
sg21
I1
sg22
I750000
sg23
I417619
sg24
g5
sg25
I1
sg26
I1
sg27
g5
sg28
I417619
sg29
I261516
sg30
I1271582
sg31
F0.0
sg32
g5
sg33
F750000.0
ssS'OLSON CINDY K'
p217
(dp218
g3
I1184
sg4
I77716
sg6
I63791
sg7
I00
sg8
g5
sg9
S'cindy.olson@enron.com'
p219
sg11
I100000
sg12
F0.016891891891891893
sg13
I1
sg14
g5
sg15
I856
sg16
I3
sg17
g5
sg18
I52
sg19
I972
sg20
g5
sg21
I1
sg22
I750000
sg23
I2606763
sg24
I20
sg25
I1
sg26
I1
sg27
I15
sg28
I969729
sg29
I329078
sg30
I1321557
sg31
F0.28846153846153844
sg32
I1637034
sg33
I2387034
ssS'MCDONALD REBECCA'
p220
(dp221
g3
I894
sg4
g5
sg6
g5
sg7
I00
sg8
g5
sg9
S'rebecca.mcdonald@enron.com'
p222
sg11
g5
sg12
F0.06040268456375839
sg13
I1
sg14
g5
sg15
I720
sg16
F1.691366
sg17
g5
sg18
I13
sg19
g5
sg20
g5
sg21
I0
sg22
g5
sg23
I1691366
sg24
I54
sg25
I0
sg26
I0
sg27
I1
sg28
I934065
sg29
g5
sg30
g5
sg31
F0.07692307692307693
sg32
I757301
sg33
F757301.0
ssS'CUMBERLAND MICHAEL S'
p223
(dp224
g3
g5
sg4
g5
sg6
I22344
sg7
I00
sg8
g5
sg9
g5
sg11
I275000
sg12
F0.0
sg13
I1
sg14
g5
sg15
g5
sg16
I1
sg17
g5
sg18
g5
sg19
I713
sg20
g5
sg21
I1
sg22
I325000
sg23
I207940
sg24
g5
sg25
I1
sg26
I1
sg27
g5
sg28
I207940
sg29
I184899
sg30
I807956
sg31
F0.0
sg32
g5
sg33
F325000.0
ssS'GAHN ROBERT S'
p225
(dp226
g3
g5
sg4
I73122
sg6
I50080
sg7
I00
sg8
I-1042
sg9
g5
sg11
g5
sg12
F0.0
sg13
I1
sg14
g5
sg15
g5
sg16
I1
sg17
g5
sg18
g5
sg19
I76547
sg20
g5
sg21
I1
sg22
I509870
sg23
I318607
sg24
g5
sg25
I1
sg26
I1
sg27
g5
sg28
I235370
sg29
I192008
sg30
I900585
sg31
F0.0
sg32
I83237
sg33
I593107
ssS'MCCLELLAN GEORGE'
p227
(dp228
g3
I1744
sg4
g5
sg6
I228763
sg7
I00
sg8
I-125000
sg9
S'george.mcclellan@enron.com'
p229
sg11
g5
sg12
F0.02981651376146789
sg13
I1
sg14
g5
sg15
I1469
sg16
I2
sg17
g5
sg18
I49
sg19
I51587
sg20
g5
sg21
I1
sg22
I900000
sg23
I947861
sg24
I52
sg25
I1
sg26
I1
sg27
I0
sg28
I441096
sg29
I263413
sg30
I1318763
sg31
F0.0
sg32
I506765
sg33
I1406765
ssS'HERMANN ROBERT J'
p230
(dp231
g3
g5
sg4
g5
sg6
I48357
sg7
I00
sg8
I-280000
sg9
S'robert.hermann@enron.com'
p232
sg11
I150000
sg12
F0.0
sg13
I1
sg14
g5
sg15
g5
sg16
I1
sg17
g5
sg18
g5
sg19
I416441
sg20
g5
sg21
I1
sg22
I700000
sg23
I668132
sg24
g5
sg25
I1
sg26
I1
sg27
g5
sg28
I480632
sg29
I262663
sg30
I1297461
sg31
F0.0
sg32
I187500
sg33
I887500
ssS'SCRIMSHAW MATTHEW'
p233
(dp234
g3
g5
sg4
g5
sg6
g5
sg7
I00
sg8
g5
sg9
S'matthew.scrimshaw@enron.com'
p235
sg11
g5
sg12
F0.0
sg13
I1
sg14
g5
sg15
g5
sg16
F0.759557
sg17
g5
sg18
g5
sg19
g5
sg20
g5
sg21
I0
sg22
g5
sg23
I759557
sg24
g5
sg25
I0
sg26
I0
sg27
g5
sg28
g5
sg29
g5
sg30
g5
sg31
F0.0
sg32
I759557
sg33
F759557.0
ssS'GATHMANN WILLIAM D'
p236
(dp237
g3
g5
sg4
g5
sg6
g5
sg7
I00
sg8
g5
sg9
g5
sg11
g5
sg12
F0.0
sg13
I1
sg14
I-72419
sg15
g5
sg16
F1.94536
sg17
g5
sg18
g5
sg19
g5
sg20
g5
sg21
I0
sg22
g5
sg23
I1945360
sg24
g5
sg25
I0
sg26
I0
sg27
g5
sg28
I264013
sg29
g5
sg30
g5
sg31
F0.0
sg32
I1753766
sg33
F1753766.0
ssS'HAEDICKE MARK E'
p238
(dp239
g3
I4009
sg4
I2157527
sg6
I76169
sg7
I00
sg8
I-934484
sg9
S'mark.haedicke@enron.com'
p240
sg11
I983346
sg12
F0.04489897730107259
sg13
I1
sg14
I-329825
sg15
I1847
sg16
I4
sg17
g5
sg18
I1941
sg19
I52382
sg20
g5
sg21
I1
sg22
I1150000
sg23
I803094
sg24
I180
sg25
I1
sg26
I1
sg27
I61
sg28
I524169
sg29
I374125
sg30
I3859065
sg31
F0.03142709943328181
sg32
I608750
sg33
I1758750
ssS'BOWEN JR RAYMOND M'
p241
(dp242
g3
I1858
sg4
g5
sg6
I65907
sg7
I01
sg8
I-833
sg9
S'raymond.bowen@enron.com'
p243
sg11
I974293
sg12
F0.07534983853606028
sg13
I1
sg14
g5
sg15
I1593
sg16
I2
sg17
g5
sg18
I27
sg19
I1621
sg20
g5
sg21
I1
sg22
I1350000
sg23
I252055
sg24
I140
sg25
I1
sg26
I1
sg27
I15
sg28
I252055
sg29
I278601
sg30
I2669589
sg31
F0.5555555555555556
sg32
g5
sg33
F1350000.0
ssS'GILLIS JOHN'
p244
(dp245
g3
g5
sg4
g5
sg6
g5
sg7
I00
sg8
g5
sg9
g5
sg11
g5
sg12
F0.0
sg13
I1
sg14
g5
sg15
g5
sg16
F0.085641
sg17
g5
sg18
g5
sg19
g5
sg20
g5
sg21
I0
sg22
g5
sg23
I85641
sg24
g5
sg25
I0
sg26
I0
sg27
g5
sg28
I75838
sg29
g5
sg30
g5
sg31
F0.0
sg32
I9803
sg33
F9803.0
ssS'FITZGERALD JAY L'
p246
(dp247
g3
I936
sg4
g5
sg6
I23870
sg7
I00
sg8
g5
sg9
S'jay.fitzgerald@enron.com'
p248
sg11
I556416
sg12
F0.0010683760683760685
sg13
I1
sg14
g5
sg15
I723
sg16
I3
sg17
g5
sg18
I16
sg19
I285414
sg20
g5
sg21
I1
sg22
I350000
sg23
I1621236
sg24
I1
sg25
I1
sg26
I1
sg27
I8
sg28
I956775
sg29
I199157
sg30
I1414857
sg31
F0.5
sg32
I664461
sg33
I1014461
ssS'MORAN MICHAEL P'
p249
(dp250
g3
I672
sg4
g5
sg6
g5
sg7
I00
sg8
g5
sg9
S'michael.moran@enron.com'
p251
sg11
g5
sg12
F0.0
sg13
I1
sg14
g5
sg15
I127
sg16
F0.221141
sg17
g5
sg18
I19
sg19
g5
sg20
g5
sg21
I0
sg22
g5
sg23
I221141
sg24
I0
sg25
I0
sg26
I0
sg27
I0
sg28
I161602
sg29
g5
sg30
g5
sg31
F0.0
sg32
I59539
sg33
F59539.0
ssS'REDMOND BRIAN L'
p252
(dp253
g3
I1671
sg4
g5
sg6
I14689
sg7
I00
sg8
g5
sg9
S'brian.redmond@enron.com'
p254
sg11
g5
sg12
F0.12208258527827648
sg13
I1
sg14
g5
sg15
I1063
sg16
I8
sg17
g5
sg18
I221
sg19
g5
sg20
g5
sg21
I0
sg22
g5
sg23
I7890324
sg24
I204
sg25
I1
sg26
I1
sg27
I49
sg28
I381285
sg29
I96840
sg30
I111529
sg31
F0.22171945701357465
sg32
I7509039
sg33
F7509039.0
ssS'BAZELIDES PHILIP J'
p255
(dp256
g3
g5
sg4
I684694
sg6
g5
sg7
I00
sg8
g5
sg9
g5
sg11
I93750
sg12
F0.0
sg13
I1
sg14
g5
sg15
g5
sg16
I2
sg17
g5
sg18
g5
sg19
I874
sg20
g5
sg21
I1
sg22
g5
sg23
I1599641
sg24
g5
sg25
I1
sg26
I0
sg27
g5
sg28
g5
sg29
I80818
sg30
I860136
sg31
F0.0
sg32
I1599641
sg33
F1599641.0
ssS'BELDEN TIMOTHY N'
p257
(dp258
g3
I7991
sg4
I2144013
sg6
I17355
sg7
I01
sg8
I-2334434
sg9
S'tim.belden@enron.com'
p259
sg11
g5
sg12
F0.028532098610937303
sg13
I1
sg14
g5
sg15
I5521
sg16
I6
sg17
g5
sg18
I484
sg19
I210698
sg20
g5
sg21
I1
sg22
I5249999
sg23
I1110705
sg24
I228
sg25
I1
sg26
I1
sg27
I108
sg28
I157569
sg29
I213999
sg30
I5501630
sg31
F0.2231404958677686
sg32
I953136
sg33
I6203135
ssS'DURAN WILLIAM D'
p260
(dp261
g3
I904
sg4
g5
sg6
I25785
sg7
I00
sg8
g5
sg9
S'w.duran@enron.com'
p262
sg11
I1105218
sg12
F0.1172566371681416
sg13
I1
sg14
g5
sg15
I599
sg16
I3
sg17
g5
sg18
I12
sg19
I1568
sg20
g5
sg21
I1
sg22
I750000
sg23
I1640910
sg24
I106
sg25
I1
sg26
I1
sg27
I3
sg28
I189041
sg29
I210692
sg30
I2093263
sg31
F0.25
sg32
I1451869
sg33
I2201869
ssS'THORN TERENCE H'
p263
(dp264
g3
I266
sg4
I16586
sg6
I46145
sg7
I00
sg8
g5
sg9
S'terence.thorn@enron.com'
p265
sg11
I200000
sg12
F0.0
sg13
I1
sg14
g5
sg15
I73
sg16
I5
sg17
g5
sg18
I41
sg19
I426629
sg20
g5
sg21
I1
sg22
g5
sg23
I4817796
sg24
I0
sg25
I1
sg26
I1
sg27
I0
sg28
I365320
sg29
I222093
sg30
I911453
sg31
F0.0
sg32
I4452476
sg33
F4452476.0
ssS'FASTOW ANDREW S'
p266
(dp267
g3
g5
sg4
g5
sg6
I55921
sg7
I01
sg8
I-1386055
sg9
S'andrew.fastow@enron.com'
p268
sg11
I1736055
sg12
F0.0
sg13
I1
sg14
g5
sg15
g5
sg16
I4
sg17
g5
sg18
g5
sg19
I277464
sg20
g5
sg21
I1
sg22
I1300000
sg23
I1794412
sg24
g5
sg25
I1
sg26
I1
sg27
g5
sg28
I1794412
sg29
I440698
sg30
I2424083
sg31
F0.0
sg32
g5
sg33
F1300000.0
ssS'FOY JOE'
p269
(dp270
g3
I57
sg4
I181755
sg6
g5
sg7
I00
sg8
g5
sg9
S'tracy.foy@enron.com'
p271
sg11
g5
sg12
F0.0
sg13
I1
sg14
g5
sg15
I2
sg16
I0
sg17
g5
sg18
I13
sg19
g5
sg20
g5
sg21
I0
sg22
g5
sg23
I343434
sg24
I0
sg25
I1
sg26
I0
sg27
I0
sg28
g5
sg29
g5
sg30
I181755
sg31
F0.0
sg32
I343434
sg33
F343434.0
ssS'CALGER CHRISTOPHER F'
p272
(dp273
g3
I2598
sg4
g5
sg6
I35818
sg7
I01
sg8
I-262500
sg9
S'christopher.calger@enron.com'
p274
sg11
I375304
sg12
F0.07659738260200154
sg13
I1
sg14
g5
sg15
I2188
sg16
I1
sg17
g5
sg18
I144
sg19
I486
sg20
g5
sg21
I1
sg22
I1250000
sg23
I126027
sg24
I199
sg25
I1
sg26
I1
sg27
I25
sg28
I126027
sg29
I240189
sg30
I1639297
sg31
F0.1736111111111111
sg32
g5
sg33
F1250000.0
ssS'RICE KENNETH D'
p275
(dp276
g3
I905
sg4
g5
sg6
I46950
sg7
I01
sg8
I-3504386
sg9
S'ken.rice@enron.com'
p277
sg11
I1617011
sg12
F0.04640883977900553
sg13
I1
sg14
g5
sg15
I864
sg16
I23
sg17
g5
sg18
I18
sg19
I174839
sg20
g5
sg21
I1
sg22
I1750000
sg23
I22542539
sg24
I42
sg25
I1
sg26
I1
sg27
I4
sg28
I2748364
sg29
I420636
sg30
I505050
sg31
F0.2222222222222222
sg32
I19794175
sg33
I21544175
ssS'KAMINSKI WINCENTY J'
p278
(dp279
g3
I4607
sg4
g5
sg6
I83585
sg7
I00
sg8
g5
sg9
S'vince.kaminski@enron.com'
p280
sg11
I323466
sg12
F0.008899500759713479
sg13
I1
sg14
g5
sg15
I583
sg16
I2
sg17
g5
sg18
I14368
sg19
I4669
sg20
g5
sg21
I1
sg22
I400000
sg23
I976037
sg24
I41
sg25
I1
sg26
I1
sg27
I171
sg28
I126027
sg29
I275101
sg30
I1086821
sg31
F0.011901447661469933
sg32
I850010
sg33
I1250010
ssS'COX DAVID'
p281
(dp282
g3
I102
sg4
g5
sg6
I27861
sg7
I00
sg8
I-41250
sg9
S'chip.cox@enron.com'
p283
sg11
g5
sg12
F0.0
sg13
I1
sg14
g5
sg15
I71
sg16
I1
sg17
g5
sg18
I33
sg19
I494
sg20
g5
sg21
I1
sg22
I800000
sg23
I495633
sg24
I0
sg25
I1
sg26
I1
sg27
I4
sg28
I378082
sg29
I314288
sg30
I1101393
sg31
F0.12121212121212122
sg32
I117551
sg33
I917551
ssS'OVERDYKE JR JERE C'
p284
(dp285
g3
g5
sg4
g5
sg6
I18834
sg7
I00
sg8
g5
sg9
S'jere.overdyke@enron.com'
p286
sg11
I135836
sg12
F0.0
sg13
I1
sg14
g5
sg15
g5
sg16
I7
sg17
g5
sg18
g5
sg19
I176
sg20
g5
sg21
I1
sg22
g5
sg23
I7307594
sg24
g5
sg25
I1
sg26
I1
sg27
g5
sg28
I2041016
sg29
I94941
sg30
I249787
sg31
F0.0
sg32
I5266578
sg33
F5266578.0
ssS'PEREIRA PAULO V. FERRAZ'
p287
(dp288
g3
g5
sg4
g5
sg6
I27942
sg7
I00
sg8
I-101250
sg9
g5
sg11
g5
sg12
F0.0
sg13
I0
sg14
g5
sg15
g5
sg16
F0.027942
sg17
g5
sg18
g5
sg19
g5
sg20
I101250
sg21
I0
sg22
g5
sg23
g5
sg24
g5
sg25
I1
sg26
I1
sg27
g5
sg28
g5
sg29
g5
sg30
I27942
sg31
F0.0
sg32
g5
sg33
F0.0
ssS'STABLER FRANK'
p289
(dp290
g3
g5
sg4
g5
sg6
I16514
sg7
I00
sg8
g5
sg9
S'frank.stabler@enron.com'
p291
sg11
g5
sg12
F0.0
sg13
I1
sg14
g5
sg15
g5
sg16
I1
sg17
g5
sg18
g5
sg19
I356071
sg20
g5
sg21
I1
sg22
I500000
sg23
I511734
sg24
g5
sg25
I1
sg26
I1
sg27
g5
sg28
I511734
sg29
I239502
sg30
I1112087
sg31
F0.0
sg32
g5
sg33
F500000.0
ssS'SKILLING JEFFREY K'
p292
(dp293
g3
I3627
sg4
g5
sg6
I29336
sg7
I01
sg8
g5
sg9
S'jeff.skilling@enron.com'
p294
sg11
I1920000
sg12
F0.0242624758753791
sg13
I1
sg14
g5
sg15
I2042
sg16
I34
sg17
g5
sg18
I108
sg19
I22122
sg20
g5
sg21
I1
sg22
I5600000
sg23
I26093672
sg24
I88
sg25
I1
sg26
I1
sg27
I30
sg28
I6843672
sg29
I1111258
sg30
I8682716
sg31
F0.2777777777777778
sg32
I19250000
sg33
I24850000
ssS'BLAKE JR. NORMAN P'
p295
(dp296
g3
g5
sg4
g5
sg6
I1279
sg7
I00
sg8
I-113784
sg9
g5
sg11
g5
sg12
F0.0
sg13
I0
sg14
g5
sg15
g5
sg16
F0.001279
sg17
g5
sg18
g5
sg19
g5
sg20
I113784
sg21
I0
sg22
g5
sg23
g5
sg24
g5
sg25
I1
sg26
I1
sg27
g5
sg28
g5
sg29
g5
sg30
I1279
sg31
F0.0
sg32
g5
sg33
F0.0
ssS'SHERRICK JEFFREY B'
p297
(dp298
g3
I613
sg4
g5
sg6
g5
sg7
I00
sg8
g5
sg9
S'jeffrey.sherrick@enron.com'
p299
sg11
g5
sg12
F0.0636215334420881
sg13
I1
sg14
g5
sg15
I583
sg16
F1.832468
sg17
g5
sg18
I25
sg19
g5
sg20
g5
sg21
I0
sg22
g5
sg23
I1832468
sg24
I39
sg25
I0
sg26
I0
sg27
I18
sg28
I405999
sg29
g5
sg30
g5
sg31
F0.72
sg32
I1426469
sg33
F1426469.0
ssS'PRENTICE JAMES'
p300
(dp301
g3
g5
sg4
I564348
sg6
g5
sg7
I00
sg8
g5
sg9
S'james.prentice@enron.com'
p302
sg11
g5
sg12
F0.0
sg13
I1
sg14
g5
sg15
g5
sg16
I1
sg17
g5
sg18
g5
sg19
g5
sg20
g5
sg21
I0
sg22
g5
sg23
I1095040
sg24
g5
sg25
I1
sg26
I0
sg27
g5
sg28
I208809
sg29
g5
sg30
I564348
sg31
F0.0
sg32
I886231
sg33
F886231.0
ssS'GRAY RODNEY'
p303
(dp304
g3
g5
sg4
I93585
sg6
g5
sg7
I00
sg8
g5
sg9
g5
sg11
I365625
sg12
F0.0
sg13
I0
sg14
g5
sg15
g5
sg16
F1.146658
sg17
g5
sg18
g5
sg19
I680833
sg20
g5
sg21
I1
sg22
g5
sg23
g5
sg24
g5
sg25
I1
sg26
I0
sg27
g5
sg28
g5
sg29
I6615
sg30
I1146658
sg31
F0.0
sg32
g5
sg33
F0.0
ssS'PICKERING MARK R'
p305
(dp306
g3
I898
sg4
g5
sg6
I31653
sg7
I00
sg8
g5
sg9
S'mark.pickering@enron.com'
p307
sg11
g5
sg12
F0.0077951002227171495
sg13
I1
sg14
g5
sg15
I728
sg16
I1
sg17
I400000
sg18
I67
sg19
g5
sg20
g5
sg21
I0
sg22
I300000
sg23
I28798
sg24
I7
sg25
I1
sg26
I1
sg27
I0
sg28
g5
sg29
I655037
sg30
I1386690
sg31
F0.0
sg32
I28798
sg33
I328798
ssS'THE TRAVEL AGENCY IN THE PARK'
p308
(dp309
g3
g5
sg4
g5
sg6
g5
sg7
I00
sg8
g5
sg9
g5
sg11
g5
sg12
F0.0
sg13
I0
sg14
g5
sg15
g5
sg16
F0.362096
sg17
g5
sg18
g5
sg19
I362096
sg20
g5
sg21
I1
sg22
g5
sg23
g5
sg24
g5
sg25
I1
sg26
I0
sg27
g5
sg28
g5
sg29
g5
sg30
I362096
sg31
F0.0
sg32
g5
sg33
F0.0
ssS'NOLES JAMES L'
p310
(dp311
g3
g5
sg4
I774401
sg6
g5
sg7
I00
sg8
g5
sg9
g5
sg11
g5
sg12
F0.0
sg13
I1
sg14
I-94556
sg15
g5
sg16
I1
sg17
g5
sg18
g5
sg19
g5
sg20
g5
sg21
I0
sg22
g5
sg23
I368705
sg24
g5
sg25
I1
sg26
I0
sg27
g5
sg28
I463261
sg29
g5
sg30
I774401
sg31
F0.0
sg32
g5
sg33
F0.0
ssS'KEAN STEVEN J'
p312
(dp313
g3
I12754
sg4
g5
sg6
I41953
sg7
I00
sg8
g5
sg9
S'steven.kean@enron.com'
p314
sg11
I300000
sg12
F0.010976948408342482
sg13
I1
sg14
g5
sg15
I3639
sg16
I7
sg17
g5
sg18
I6759
sg19
I1231
sg20
g5
sg21
I1
sg22
I1000000
sg23
I6153642
sg24
I140
sg25
I1
sg26
I1
sg27
I387
sg28
I4131594
sg29
I404338
sg30
I1747522
sg31
F0.05725699067909454
sg32
I2022048
sg33
I3022048
ssS'FOWLER PEGGY'
p315
(dp316
g3
I517
sg4
g5
sg6
g5
sg7
I00
sg8
g5
sg9
S'kulvinder.fowler@enron.com'
p317
sg11
g5
sg12
F0.0
sg13
I1
sg14
g5
sg15
I10
sg16
F1.884748
sg17
g5
sg18
I36
sg19
g5
sg20
g5
sg21
I0
sg22
g5
sg23
I1884748
sg24
I0
sg25
I0
sg26
I0
sg27
I0
sg28
I560170
sg29
g5
sg30
g5
sg31
F0.0
sg32
I1324578
sg33
F1324578.0
ssS'WASAFF GEORGE'
p318
(dp319
g3
I400
sg4
I831299
sg6
g5
sg7
I00
sg8
I-583325
sg9
S'george.wasaff@enron.com'
p320
sg11
I200000
sg12
F0.055
sg13
I1
sg14
g5
sg15
I337
sg16
I3
sg17
g5
sg18
I30
sg19
I1425
sg20
g5
sg21
I1
sg22
I325000
sg23
I2056427
sg24
I22
sg25
I1
sg26
I0
sg27
I7
sg28
I388167
sg29
I259996
sg30
I1034395
sg31
F0.23333333333333334
sg32
I1668260
sg33
I1993260
ssS'WHITE JR THOMAS E'
p321
(dp322
g3
g5
sg4
g5
sg6
I81353
sg7
I00
sg8
g5
sg9
S'thomas.white@enron.com'
p323
sg11
g5
sg12
F0.0
sg13
I1
sg14
g5
sg15
g5
sg16
I17
sg17
g5
sg18
g5
sg19
I1085463
sg20
g5
sg21
I1
sg22
I450000
sg23
I15144123
sg24
g5
sg25
I1
sg26
I1
sg27
g5
sg28
I13847074
sg29
I317543
sg30
I1934359
sg31
F0.0
sg32
I1297049
sg33
I1747049
ssS'CHRISTODOULOU DIOMEDES'
p324
(dp325
g3
g5
sg4
g5
sg6
g5
sg7
I00
sg8
g5
sg9
S'diomedes.christodoulou@enron.com'
p326
sg11
g5
sg12
F0.0
sg13
I1
sg14
g5
sg15
g5
sg16
F6.077885
sg17
g5
sg18
g5
sg19
g5
sg20
g5
sg21
I0
sg22
g5
sg23
I6077885
sg24
g5
sg25
I0
sg26
I0
sg27
g5
sg28
I950730
sg29
g5
sg30
g5
sg31
F0.0
sg32
I5127155
sg33
F5127155.0
ssS'ALLEN PHILLIP K'
p327
(dp328
g3
I2902
sg4
I2869717
sg6
I13868
sg7
I00
sg8
I-3081055
sg9
S'phillip.allen@enron.com'
p329
sg11
I304805
sg12
F0.016195727084769126
sg13
I1
sg14
I-126027
sg15
I1407
sg16
I6
sg17
g5
sg18
I2195
sg19
I152
sg20
g5
sg21
I1
sg22
I4175000
sg23
I1729541
sg24
I47
sg25
I1
sg26
I1
sg27
I65
sg28
I126027
sg29
I201955
sg30
I4484442
sg31
F0.029612756264236904
sg32
I1729541
sg33
I5904541
ssS'SHARP VICTORIA T'
p330
(dp331
g3
I3136
sg4
I187469
sg6
I116337
sg7
I00
sg8
g5
sg9
S'vicki.sharp@enron.com'
p332
sg11
I422158
sg12
F0.007653061224489796
sg13
I1
sg14
g5
sg15
I2477
sg16
I2
sg17
g5
sg18
I136
sg19
I2401
sg20
g5
sg21
I1
sg22
I600000
sg23
I494136
sg24
I24
sg25
I1
sg26
I1
sg27
I6
sg28
I213063
sg29
I248146
sg30
I1576511
sg31
F0.04411764705882353
sg32
I281073
sg33
I881073
ssS'JAEDICKE ROBERT'
p333
(dp334
g3
g5
sg4
g5
sg6
g5
sg7
I00
sg8
I-25000
sg9
g5
sg11
g5
sg12
F0.0
sg13
I1
sg14
I-44093
sg15
g5
sg16
I0
sg17
g5
sg18
g5
sg19
g5
sg20
I108750
sg21
I0
sg22
g5
sg23
I431750
sg24
g5
sg25
I1
sg26
I0
sg27
g5
sg28
I44093
sg29
g5
sg30
I83750
sg31
F0.0
sg32
I431750
sg33
F431750.0
ssS'WINOKUR JR. HERBERT S'
p335
(dp336
g3
g5
sg4
g5
sg6
I1413
sg7
I00
sg8
I-25000
sg9
g5
sg11
g5
sg12
F0.0
sg13
I0
sg14
g5
sg15
g5
sg16
F0.084992
sg17
g5
sg18
g5
sg19
g5
sg20
I108579
sg21
I0
sg22
g5
sg23
g5
sg24
g5
sg25
I1
sg26
I1
sg27
g5
sg28
g5
sg29
g5
sg30
I84992
sg31
F0.0
sg32
g5
sg33
F0.0
ssS'BROWN MICHAEL'
p337
(dp338
g3
I1486
sg4
g5
sg6
I49288
sg7
I00
sg8
g5
sg9
S'michael.brown@enron.com'
p339
sg11
g5
sg12
F0.008748317631224764
sg13
I0
sg14
g5
sg15
I761
sg16
F0.049288
sg17
g5
sg18
I41
sg19
g5
sg20
g5
sg21
I0
sg22
g5
sg23
g5
sg24
I13
sg25
I1
sg26
I1
sg27
I1
sg28
g5
sg29
g5
sg30
I49288
sg31
F0.024390243902439025
sg32
g5
sg33
F0.0
ssS'BADUM JAMES P'
p340
(dp341
g3
g5
sg4
I178980
sg6
I3486
sg7
I00
sg8
g5
sg9
g5
sg11
g5
sg12
F0.0
sg13
I1
sg14
g5
sg15
g5
sg16
I0
sg17
g5
sg18
g5
sg19
g5
sg20
g5
sg21
I0
sg22
g5
sg23
I257817
sg24
g5
sg25
I1
sg26
I1
sg27
g5
sg28
g5
sg29
g5
sg30
I182466
sg31
F0.0
sg32
I257817
sg33
F257817.0
ssS'HUGHES JAMES A'
p342
(dp343
g3
I719
sg4
g5
sg6
g5
sg7
I00
sg8
g5
sg9
S'james.hughes@enron.com'
p344
sg11
g5
sg12
F0.048678720445062586
sg13
I1
sg14
g5
sg15
I589
sg16
F1.118394
sg17
g5
sg18
I34
sg19
g5
sg20
g5
sg21
I0
sg22
g5
sg23
I1118394
sg24
I35
sg25
I0
sg26
I0
sg27
I5
sg28
I363428
sg29
g5
sg30
g5
sg31
F0.14705882352941177
sg32
I754966
sg33
F754966.0
ssS'REYNOLDS LAWRENCE'
p345
(dp346
g3
g5
sg4
I51365
sg6
I8409
sg7
I00
sg8
I-200000
sg9
g5
sg11
I156250
sg12
F0.0
sg13
I1
sg14
I-140264
sg15
g5
sg16
I4
sg17
g5
sg18
g5
sg19
I202052
sg20
g5
sg21
I1
sg22
I100000
sg23
I4221891
sg24
g5
sg25
I1
sg26
I1
sg27
g5
sg28
I201483
sg29
I76399
sg30
I394475
sg31
F0.0
sg32
I4160672
sg33
I4260672
ssS'DIMICHELE RICHARD G'
p347
(dp348
g3
g5
sg4
g5
sg6
I35812
sg7
I00
sg8
g5
sg9
S'richard.dimichele@enron.com'
p349
sg11
I694862
sg12
F0.0
sg13
I1
sg14
g5
sg15
g5
sg16
I10
sg17
g5
sg18
g5
sg19
I374689
sg20
g5
sg21
I1
sg22
I1000000
sg23
I8317782
sg24
g5
sg25
I1
sg26
I1
sg27
g5
sg28
I126027
sg29
I262788
sg30
I2368151
sg31
F0.0
sg32
I8191755
sg33
I9191755
ssS'BHATNAGAR SANJAY'
p350
(dp351
g3
I523
sg4
g5
sg6
g5
sg7
I00
sg8
g5
sg9
S'sanjay.bhatnagar@enron.com'
p352
sg11
g5
sg12
F0.0
sg13
I0
sg14
I15456290
sg15
I463
sg16
F15.45629
sg17
g5
sg18
I29
sg19
I137864
sg20
I137864
sg21
I1
sg22
g5
sS'total_stock_value'
p353
S'NaN'
p354
sg24
I0
sg25
I1
sg26
I0
sg27
I1
sg28
I-2604490
sg29
g5
sg30
I15456290
sg31
F0.034482758620689655
sg32
I2604490
sg33
F2604490.0
ssS'CARTER REBECCA C'
p355
(dp356
g3
I312
sg4
g5
sg6
g5
sg7
I00
sg8
I-159792
sg9
S'rebecca.carter@enron.com'
p357
sg11
I75000
sg12
F0.09294871794871795
sg13
I0
sg14
I-307301
sg15
I196
sg16
F0.477557
sg17
g5
sg18
I15
sg19
I540
sg20
g5
sg21
I1
sg22
I300000
sg23
g5
sg24
I29
sg25
I1
sg26
I0
sg27
I7
sg28
I307301
sg29
I261809
sg30
I477557
sg31
F0.4666666666666667
sg32
g5
sg33
F300000.0
ssS'BUCHANAN HAROLD G'
p358
(dp359
g3
I1088
sg4
g5
sg6
I600
sg7
I00
sg8
g5
sg9
S'john.buchanan@enron.com'
p360
sg11
I304805
sg12
F0.0
sg13
I1
sg14
g5
sg15
I23
sg16
I2
sg17
g5
sg18
I125
sg19
I1215
sg20
g5
sg21
I1
sg22
I500000
sg23
I1014505
sg24
I0
sg25
I1
sg26
I1
sg27
I0
sg28
I189041
sg29
I248017
sg30
I1054637
sg31
F0.0
sg32
I825464
sg33
I1325464
ssS'YEAP SOON'
p361
(dp362
g3
g5
sg4
g5
sg6
I55097
sg7
I00
sg8
g5
sg9
g5
sg11
g5
sg12
F0.0
sg13
I1
sg14
g5
sg15
g5
sg16
I0
sg17
g5
sg18
g5
sg19
g5
sg20
g5
sg21
I0
sg22
g5
sg23
I192758
sg24
g5
sg25
I1
sg26
I1
sg27
g5
sg28
g5
sg29
g5
sg30
I55097
sg31
F0.0
sg32
I192758
sg33
F192758.0
ssS'MURRAY JULIA H'
p363
(dp364
g3
I2192
sg4
g5
sg6
I57580
sg7
I00
sg8
g5
sg9
S'julia.murray@enron.com'
p365
sg11
I125000
sg12
F0.005018248175182482
sg13
I1
sg14
g5
sg15
I395
sg16
I1
sg17
g5
sg18
I45
sg19
I330
sg20
g5
sg21
I1
sg22
I400000
sg23
I597461
sg24
I11
sg25
I1
sg26
I1
sg27
I2
sg28
I196983
sg29
I229284
sg30
I812194
sg31
F0.044444444444444446
sg32
I400478
sg33
I800478
ssS'GARLAND C KEVIN'
p366
(dp367
g3
I209
sg4
g5
sg6
I48405
sg7
I00
sg8
g5
sg9
S'kevin.garland@enron.com'
p368
sg11
I375304
sg12
F0.04784688995215311
sg13
I1
sg14
g5
sg15
I178
sg16
I2
sg17
g5
sg18
I44
sg19
I60814
sg20
g5
sg21
I1
sg22
I850000
sg23
I896153
sg24
I10
sg25
I1
sg26
I1
sg27
I27
sg28
I259907
sg29
I231946
sg30
I1566469
sg31
F0.6136363636363636
sg32
I636246
sg33
I1486246
ssS'DODSON KEITH'
p369
(dp370
g3
I176
sg4
g5
sg6
I28164
sg7
I00
sg8
g5
sg9
S'keith.dodson@enron.com'
p371
sg11
g5
sg12
F0.056818181818181816
sg13
I0
sg14
g5
sg15
I114
sg16
F0.319941
sg17
g5
sg18
I14
sg19
I774
sg20
g5
sg21
I1
sg22
I70000
sg23
g5
sg24
I10
sg25
I1
sg26
I1
sg27
I3
sg28
g5
sg29
I221003
sg30
I319941
sg31
F0.21428571428571427
sg32
g5
sg33
F70000.0
ssS'YEAGER F SCOTT'
p372
(dp373
g3
g5
sg4
g5
sg6
I53947
sg7
I01
sg8
g5
sg9
S'scott.yeager@enron.com'
p374
sg11
g5
sg12
F0.0
sg13
I1
sg14
g5
sg15
g5
sg16
I12
sg17
g5
sg18
g5
sg19
I147950
sg20
g5
sg21
I1
sg22
g5
sg23
I11884758
sg24
g5
sg25
I1
sg26
I1
sg27
g5
sg28
I3576206
sg29
I158403
sg30
I360300
sg31
F0.0
sg32
I8308552
sg33
F8308552.0
ssS'HIRKO JOSEPH'
p375
(dp376
g3
g5
sg4
I10259
sg6
I77978
sg7
I01
sg8
g5
sg9
S'joe.hirko@enron.com'
p377
sg11
g5
sg12
F0.0
sg13
I1
sg14
g5
sg15
g5
sg16
I30
sg17
g5
sg18
g5
sg19
I2856
sg20
g5
sg21
I1
sg22
g5
sg23
I30766064
sg24
g5
sg25
I1
sg26
I1
sg27
g5
sg28
g5
sg29
g5
sg30
I91093
sg31
F0.0
sg32
I30766064
sg33
F30766064.0
ssS'DIETRICH JANET R'
p378
(dp379
g3
I2572
sg4
g5
sg6
I3475
sg7
I00
sg8
g5
sg9
S'janet.dietrich@enron.com'
p380
sg11
I556416
sg12
F0.11858475894245724
sg13
I1
sg14
g5
sg15
I1902
sg16
I3
sg17
g5
sg18
I63
sg19
I473
sg20
g5
sg21
I1
sg22
I600000
sg23
I1865087
sg24
I305
sg25
I1
sg26
I1
sg27
I14
sg28
I315068
sg29
I250100
sg30
I1410464
sg31
F0.2222222222222222
sg32
I1550019
sg33
I2150019
ssS'DERRICK JR. JAMES V'
p381
(dp382
g3
I2181
sg4
g5
sg6
I51124
sg7
I00
sg8
I-1284000
sg9
S'james.derrick@enron.com'
p383
sg11
I484000
sg12
F0.029344337459880788
sg13
I1
sg14
I-1787380
sg15
I1401
sg16
I9
sg17
g5
sg18
I909
sg19
I7482
sg20
g5
sg21
I1
sg22
I800000
sg23
I8831913
sg24
I64
sg25
I1
sg26
I1
sg27
I20
sg28
I1787380
sg29
I492375
sg30
I550981
sg31
F0.022002200220022004
sg32
I8831913
sg33
I9631913
ssS'FREVERT MARK A'
p384
(dp385
g3
I3275
sg4
I6426990
sg6
I86987
sg7
I00
sg8
I-3367011
sg9
S'mark.frevert@enron.com'
p386
sg11
I1617011
sg12
F0.07389312977099237
sg13
I1
sg14
g5
sg15
I2979
sg16
I31
sg17
I2000000
sg18
I21
sg19
I7427621
sg20
g5
sg21
I1
sg22
I2000000
sg23
I14622185
sg24
I242
sg25
I1
sg26
I1
sg27
I6
sg28
I4188667
sg29
I1060932
sg30
I17252530
sg31
F0.2857142857142857
sg32
I10433518
sg33
I12433518
ssS'PAI LOU L'
p387
(dp388
g3
g5
sg4
g5
sg6
I32047
sg7
I00
sg8
g5
sg9
S'lou.pai@enron.com'
p389
sg11
g5
sg12
F0.0
sg13
I1
sg14
g5
sg15
g5
sg16
I26
sg17
g5
sg18
g5
sg19
I1829457
sg20
g5
sg21
I1
sg22
I1000000
sg23
I23817930
sg24
g5
sg25
I1
sg26
I1
sg27
g5
sg28
I8453763
sg29
I261879
sg30
I3123383
sg31
F0.0
sg32
I15364167
sg33
I16364167
ssS'BAY FRANKLIN R'
p390
(dp391
g3
g5
sg4
I260455
sg6
I129142
sg7
I00
sg8
I-201641
sg9
S'frank.bay@enron.com'
p392
sg11
g5
sg12
F0.0
sg13
I1
sg14
I-82782
sg15
g5
sg16
I0
sg17
g5
sg18
g5
sg19
I69
sg20
g5
sg21
I1
sg22
I400000
sg23
I63014
sg24
g5
sg25
I1
sg26
I1
sg27
g5
sg28
I145796
sg29
I239671
sg30
I827696
sg31
F0.0
sg32
g5
sg33
F400000.0
ssS'HAYSLETT RODERICK J'
p393
(dp394
g3
I2649
sg4
g5
sg6
g5
sg7
I00
sg8
g5
sg9
S'rod.hayslett@enron.com'
p395
sg11
g5
sg12
F0.01321253303133258
sg13
I1
sg14
g5
sg15
I571
sg16
F0.346663
sg17
g5
sg18
I1061
sg19
g5
sg20
g5
sg21
I0
sg22
g5
sg23
I346663
sg24
I35
sg25
I0
sg26
I0
sg27
I38
sg28
I346663
sg29
g5
sg30
g5
sg31
F0.03581526861451461
sg32
g5
sg33
F0.0
ssS'FUGH JOHN L'
p396
(dp397
g3
g5
sg4
I50591
sg6
g5
sg7
I00
sg8
g5
sg9
g5
sg11
g5
sg12
F0.0
sg13
I1
sg14
g5
sg15
g5
sg16
I0
sg17
g5
sg18
g5
sg19
g5
sg20
g5
sg21
I0
sg22
g5
sg23
I176378
sg24
g5
sg25
I1
sg26
I0
sg27
g5
sg28
g5
sg29
g5
sg30
I50591
sg31
F0.0
sg32
I176378
sg33
F176378.0
ssS'FALLON JAMES B'
p398
(dp399
g3
I1755
sg4
g5
sg6
I95924
sg7
I00
sg8
g5
sg9
S'jim.fallon@enron.com'
p400
sg11
I374347
sg12
F0.023931623931623933
sg13
I1
sg14
g5
sg15
I1604
sg16
I6
sg17
g5
sg18
I75
sg19
I401481
sg20
g5
sg21
I1
sg22
I2500000
sg23
I2332399
sg24
I42
sg25
I1
sg26
I1
sg27
I37
sg28
I1392142
sg29
I304588
sg30
I3676340
sg31
F0.49333333333333335
sg32
I940257
sg33
I3440257
ssS'KOENIG MARK E'
p401
(dp402
g3
I2374
sg4
g5
sg6
I127017
sg7
I01
sg8
g5
sg9
S'mark.koenig@enron.com'
p403
sg11
I300000
sg12
F0.02232518955349621
sg13
I1
sg14
g5
sg15
I2271
sg16
I3
sg17
g5
sg18
I61
sg19
I150458
sg20
g5
sg21
I1
sg22
I700000
sg23
I1920055
sg24
I53
sg25
I1
sg26
I1
sg27
I15
sg28
I1248318
sg29
I309946
sg30
I1587421
sg31
F0.2459016393442623
sg32
I671737
sg33
I1371737
ssS'SAVAGE FRANK'
p404
(dp405
g3
g5
sg4
g5
sg6
g5
sg7
I00
sg8
I-121284
sg9
g5
sg11
g5
sg12
F0.0
sg13
I0
sg14
g5
sg15
g5
sg16
F0.00375
sg17
g5
sg18
g5
sg19
g5
sg20
I125034
sg21
I0
sg22
g5
sg23
g5
sg24
g5
sg25
I1
sg26
I0
sg27
g5
sg28
g5
sg29
g5
sg30
I3750
sg31
F0.0
sg32
g5
sg33
F0.0
ssS'IZZO LAWRENCE L'
p406
(dp407
g3
I496
sg4
g5
sg6
I28093
sg7
I00
sg8
g5
sg9
S'larry.izzo@enron.com'
p408
sg11
I312500
sg12
F0.056451612903225805
sg13
I1
sg14
g5
sg15
I437
sg16
I7
sg17
g5
sg18
I19
sg19
I1553729
sg20
g5
sg21
I1
sg22
g5
sg23
I5819980
sg24
I28
sg25
I1
sg26
I1
sg27
I5
sg28
I3654808
sg29
I85274
sg30
I1979596
sg31
F0.2631578947368421
sg32
I2165172
sg33
F2165172.0
ssS'TILNEY ELIZABETH A'
p409
(dp410
g3
I460
sg4
g5
sg6
g5
sg7
I00
sg8
I-575000
sg9
S'elizabeth.tilney@enron.com'
p411
sg11
I275000
sg12
F0.021739130434782608
sg13
I1
sg14
g5
sg15
I379
sg16
I1
sg17
g5
sg18
I19
sg19
I152055
sg20
g5
sg21
I1
sg22
I300000
sg23
I1168042
sg24
I10
sg25
I1
sg26
I0
sg27
I11
sg28
I576792
sg29
I247338
sg30
I399393
sg31
F0.5789473684210527
sg32
I591250
sg33
I891250
ssS'MARTIN AMANDA K'
p412
(dp413
g3
I1522
sg4
I85430
sg6
I8211
sg7
I00
sg8
g5
sg9
S'a..martin@enron.com'
p414
sg11
I5145434
sg12
F0.005256241787122208
sg13
I1
sg14
g5
sg15
I477
sg16
I10
sg17
g5
sg18
I230
sg19
I2818454
sg20
g5
sg21
I1
sg22
g5
sg23
I2070306
sg24
I8
sg25
I1
sg26
I1
sg27
I0
sg28
g5
sg29
I349487
sg30
I8407016
sg31
F0.0
sg32
I2070306
sg33
F2070306.0
ssS'BUY RICHARD B'
p415
(dp416
g3
I3523
sg4
I649584
sg6
g5
sg7
I00
sg8
I-694862
sg9
S'rick.buy@enron.com'
p417
sg11
I769862
sg12
F0.04428044280442804
sg13
I1
sg14
g5
sg15
I2333
sg16
I5
sg17
g5
sg18
I1053
sg19
I400572
sg20
g5
sg21
I1
sg22
I900000
sg23
I3444470
sg24
I156
sg25
I1
sg26
I0
sg27
I71
sg28
I901657
sg29
I330546
sg30
I2355702
sg31
F0.06742640075973409
sg32
I2542813
sg33
I3442813
ssS'GRAMM WENDY L'
p418
(dp419
g3
g5
sg4
g5
sg6
g5
sg7
I00
sg8
g5
sg9
g5
sg11
g5
sg12
F0.0
sg13
I0
sg14
g5
sg15
g5
sg16
F0.119292
sg17
g5
sg18
g5
sg19
g5
sg20
I119292
sg21
I0
sg22
g5
sg23
g5
sg24
g5
sg25
I1
sg26
I0
sg27
g5
sg28
g5
sg29
g5
sg30
I119292
sg31
F0.0
sg32
g5
sg33
F0.0
ssS'CAUSEY RICHARD A'
p420
(dp421
g3
I1892
sg4
g5
sg6
I30674
sg7
I01
sg8
I-235000
sg9
S'richard.causey@enron.com'
p422
sg11
I350000
sg12
F0.0306553911205074
sg13
I1
sg14
g5
sg15
I1585
sg16
I4
sg17
g5
sg18
I49
sg19
I307895
sg20
g5
sg21
I1
sg22
I1000000
sg23
I2502063
sg24
I58
sg25
I1
sg26
I1
sg27
I12
sg28
I2502063
sg29
I415189
sg30
I1868758
sg31
F0.24489795918367346
sg32
g5
sg33
F1000000.0
ssS'TAYLOR MITCHELL S'
p423
(dp424
g3
I533
sg4
I227449
sg6
g5
sg7
I00
sg8
g5
sg9
S'mitchell.taylor@enron.com'
p425
sg11
g5
sg12
F0.0
sg13
I1
sg14
g5
sg15
I300
sg16
I4
sg17
g5
sg18
I29
sg19
g5
sg20
g5
sg21
I0
sg22
I600000
sg23
I3745048
sg24
I0
sg25
I1
sg26
I0
sg27
I0
sg28
I563798
sg29
I265214
sg30
I1092663
sg31
F0.0
sg32
I3181250
sg33
I3781250
ssS'DONAHUE JR JEFFREY M'
p426
(dp427
g3
I865
sg4
g5
sg6
I96268
sg7
I00
sg8
I-300000
sg9
S'jeff.donahue@enron.com'
p428
sg11
g5
sg12
F0.21734104046242775
sg13
I1
sg14
g5
sg15
I772
sg16
I1
sg17
g5
sg18
I22
sg19
I891
sg20
g5
sg21
I1
sg22
I800000
sg23
I1080988
sg24
I188
sg25
I1
sg26
I1
sg27
I11
sg28
I315068
sg29
I278601
sg30
I875760
sg31
F0.5
sg32
I765920
sg33
I1565920
ssS'GLISAN JR BEN F'
p429
(dp430
g3
I873
sg4
g5
sg6
I125978
sg7
I01
sg8
g5
sg9
S'ben.glisan@enron.com'
p431
sg11
I71023
sg12
F0.05956471935853379
sg13
I1
sg14
g5
sg15
I874
sg16
I2
sg17
g5
sg18
I16
sg19
I200308
sg20
g5
sg21
I1
sg22
I600000
sg23
I778546
sg24
I52
sg25
I1
sg26
I1
sg27
I6
sg28
I393818
sg29
I274975
sg30
I1272284
sg31
F0.375
sg32
I384728
sg33
I984728
ss.