(lp0
S'poi'
p1
aS'salary'
p2
aS'bonus'
p3
aS'deferred_income'
p4
aS'total_stock_value'
p5
aS'exercised_stock_options'
p6
aS'long_term_incentive'
p7
aS'has_expenses'
p8
aS'has_other'
p9
aS'fraction_to_poi'
p10
aS'total_beso'
p11
aS'num_millions'
p12
a.